target datalayout = "e-m:e-p270:32:32-p271:32:32-p272:64:64-i64:64-i128:128-f80:128-n8:16:32:64-S128"
target triple = "x86_64-pc-linux-gnu"

%struct.Gia_ResbMan_t_ = type { i32, i32, i32, i32, i32, i32, i32, i32, ptr, ptr, [2 x ptr], [2 x ptr], [2 x ptr], ptr, [2 x ptr], [2 x ptr], ptr, [2 x ptr], ptr, ptr, ptr }
%struct.Vec_Ptr_t_ = type { i32, i32, ptr }
%struct.Vec_Wrd_t_ = type { i32, i32, ptr }

@.str.4 = private unnamed_addr constant [2 x i8] c"\0A\00", align 1

; Function Attrs: inlinehint nounwind uwtable
define internal ptr @Vec_PtrAllocArray(ptr noundef %0, i32 noundef %1) #2 {
  %3 = alloca ptr, align 8
  %4 = alloca i32, align 4
  %5 = alloca ptr, align 8
  store ptr %0, ptr %3, align 8, !tbaa !99
  store i32 %1, ptr %4, align 4, !tbaa !10
  call void @llvm.lifetime.start.p0(i64 8, ptr %5) #14
  %6 = call noalias ptr @malloc(i64 noundef 16) #15
  store ptr %6, ptr %5, align 8, !tbaa !80
  %7 = load i32, ptr %4, align 4, !tbaa !10
  %8 = load ptr, ptr %5, align 8, !tbaa !80
  %9 = getelementptr inbounds nuw %struct.Vec_Ptr_t_, ptr %8, i32 0, i32 1
  store i32 %7, ptr %9, align 4, !tbaa !81
  %10 = load i32, ptr %4, align 4, !tbaa !10
  %11 = load ptr, ptr %5, align 8, !tbaa !80
  %12 = getelementptr inbounds nuw %struct.Vec_Ptr_t_, ptr %11, i32 0, i32 0
  store i32 %10, ptr %12, align 8, !tbaa !83
  %13 = load ptr, ptr %3, align 8, !tbaa !99
  %14 = load ptr, ptr %5, align 8, !tbaa !80
  %15 = getelementptr inbounds nuw %struct.Vec_Ptr_t_, ptr %14, i32 0, i32 2
  store ptr %13, ptr %15, align 8, !tbaa !84
  %16 = load ptr, ptr %5, align 8, !tbaa !80
  call void @llvm.lifetime.end.p0(i64 8, ptr %5) #14
  ret ptr %16
}

; Function Attrs: inlinehint nounwind uwtable
define internal ptr @Vec_WrdEntryP(ptr noundef %0, i32 noundef %1) #2 {
  %3 = alloca ptr, align 8
  %4 = alloca i32, align 4
  store ptr %0, ptr %3, align 8, !tbaa !85
  store i32 %1, ptr %4, align 4, !tbaa !10
  %5 = load ptr, ptr %3, align 8, !tbaa !85
  %6 = getelementptr inbounds nuw %struct.Vec_Wrd_t_, ptr %5, i32 0, i32 2
  %7 = load ptr, ptr %6, align 8, !tbaa !89
  %8 = load i32, ptr %4, align 4, !tbaa !10
  %9 = sext i32 %8 to i64
  %10 = getelementptr inbounds i64, ptr %7, i64 %9
  ret ptr %10
}

; Function Attrs: inlinehint nounwind uwtable
define internal ptr @Vec_PtrEntry(ptr noundef %0, i32 noundef %1) #2 {
  %3 = alloca ptr, align 8
  %4 = alloca i32, align 4
  store ptr %0, ptr %3, align 8, !tbaa !80
  store i32 %1, ptr %4, align 4, !tbaa !10
  %5 = load ptr, ptr %3, align 8, !tbaa !80
  %6 = getelementptr inbounds nuw %struct.Vec_Ptr_t_, ptr %5, i32 0, i32 2
  %7 = load ptr, ptr %6, align 8, !tbaa !84
  %8 = load i32, ptr %4, align 4, !tbaa !10
  %9 = sext i32 %8 to i64
  %10 = getelementptr inbounds ptr, ptr %7, i64 %9
  %11 = load ptr, ptr %10, align 8, !tbaa !99
  ret ptr %11
}

; Function Attrs: inlinehint nounwind uwtable
define internal i32 @Vec_PtrSize(ptr noundef %0) #2 {
  %2 = alloca ptr, align 8
  store ptr %0, ptr %2, align 8, !tbaa !80
  %3 = load ptr, ptr %2, align 8, !tbaa !80
  %4 = getelementptr inbounds nuw %struct.Vec_Ptr_t_, ptr %3, i32 0, i32 1
  %5 = load i32, ptr %4, align 4, !tbaa !81
  ret i32 %5
}

; Function Attrs: inlinehint nounwind uwtable
define internal ptr @Vec_PtrAllocSimInfo(i32 noundef %0, i32 noundef %1) #2 {
  %3 = alloca i32, align 4
  %4 = alloca i32, align 4
  %5 = alloca ptr, align 8
  %6 = alloca ptr, align 8
  %7 = alloca i32, align 4
  store i32 %0, ptr %3, align 4, !tbaa !10
  store i32 %1, ptr %4, align 4, !tbaa !10
  call void @llvm.lifetime.start.p0(i64 8, ptr %5) #14
  call void @llvm.lifetime.start.p0(i64 8, ptr %6) #14
  call void @llvm.lifetime.start.p0(i64 4, ptr %7) #14
  %8 = load i32, ptr %4, align 4, !tbaa !10
  %9 = sext i32 %8 to i64
  %10 = mul i64 4, %9
  %11 = add i64 8, %10
  %12 = load i32, ptr %3, align 4, !tbaa !10
  %13 = sext i32 %12 to i64
  %14 = mul i64 %11, %13
  %15 = mul i64 1, %14
  %16 = call noalias ptr @malloc(i64 noundef %15) #15
  store ptr %16, ptr %5, align 8, !tbaa !99
  %17 = load ptr, ptr %5, align 8, !tbaa !99
  %18 = load i32, ptr %3, align 4, !tbaa !10
  %19 = sext i32 %18 to i64
  %20 = getelementptr inbounds ptr, ptr %17, i64 %19
  store ptr %20, ptr %6, align 8, !tbaa !61
  store i32 0, ptr %7, align 4, !tbaa !10
  br label %21

21:                                               ; preds = %36, %2
  %22 = load i32, ptr %7, align 4, !tbaa !10
  %23 = load i32, ptr %3, align 4, !tbaa !10
  %24 = icmp slt i32 %22, %23
  br i1 %24, label %25, label %39

25:                                               ; preds = %21
  %26 = load ptr, ptr %6, align 8, !tbaa !61
  %27 = load i32, ptr %7, align 4, !tbaa !10
  %28 = load i32, ptr %4, align 4, !tbaa !10
  %29 = mul nsw i32 %27, %28
  %30 = sext i32 %29 to i64
  %31 = getelementptr inbounds i32, ptr %26, i64 %30
  %32 = load ptr, ptr %5, align 8, !tbaa !99
  %33 = load i32, ptr %7, align 4, !tbaa !10
  %34 = sext i32 %33 to i64
  %35 = getelementptr inbounds ptr, ptr %32, i64 %34
  store ptr %31, ptr %35, align 8, !tbaa !99
  br label %36

36:                                               ; preds = %25
  %37 = load i32, ptr %7, align 4, !tbaa !10
  %38 = add nsw i32 %37, 1
  store i32 %38, ptr %7, align 4, !tbaa !10
  br label %21, !llvm.loop !220

39:                                               ; preds = %21
  %40 = load ptr, ptr %5, align 8, !tbaa !99
  %41 = load i32, ptr %3, align 4, !tbaa !10
  %42 = call ptr @Vec_PtrAllocArray(ptr noundef %40, i32 noundef %41)
  call void @llvm.lifetime.end.p0(i64 4, ptr %7) #14
  call void @llvm.lifetime.end.p0(i64 8, ptr %6) #14
  call void @llvm.lifetime.end.p0(i64 8, ptr %5) #14
  ret ptr %42
}

; Function Attrs: nounwind uwtable
define void @Gia_ManResubPair(ptr noundef %0, ptr noundef %1, i32 noundef %2, i32 noundef %3) #0 {
  %5 = alloca ptr, align 8
  %6 = alloca ptr, align 8
  %7 = alloca i32, align 4
  %8 = alloca i32, align 4
  %9 = alloca ptr, align 8
  %10 = alloca ptr, align 8
  %11 = alloca ptr, align 8
  %12 = alloca i32, align 4
  store ptr %0, ptr %5, align 8, !tbaa !85
  store ptr %1, ptr %6, align 8, !tbaa !85
  store i32 %2, ptr %7, align 4, !tbaa !10
  store i32 %3, ptr %8, align 4, !tbaa !10
  call void @llvm.lifetime.start.p0(i64 8, ptr %9) #14
  %13 = load i32, ptr %7, align 4, !tbaa !10
  %14 = mul nsw i32 %13, 2
  %15 = call ptr @Gia_ResbAlloc(i32 noundef %14)
  store ptr %15, ptr %9, align 8, !tbaa !67
  call void @llvm.lifetime.start.p0(i64 8, ptr %10) #14
  %16 = load i32, ptr %8, align 4, !tbaa !10
  %17 = add nsw i32 %16, 2
  %18 = load i32, ptr %7, align 4, !tbaa !10
  %19 = mul nsw i32 %18, 2
  %20 = call ptr @Vec_PtrAllocSimInfo(i32 noundef %17, i32 noundef %19)
  store ptr %20, ptr %10, align 8, !tbaa !80
  call void @llvm.lifetime.start.p0(i64 8, ptr %11) #14
  call void @llvm.lifetime.start.p0(i64 4, ptr %12) #14
  store i32 0, ptr %12, align 4, !tbaa !10
  br label %21

21:                                               ; preds = %88, %4
  %22 = load i32, ptr %12, align 4, !tbaa !10
  %23 = load ptr, ptr %10, align 8, !tbaa !80
  %24 = call i32 @Vec_PtrSize(ptr noundef %23)
  %25 = icmp slt i32 %22, %24
  br i1 %25, label %26, label %30

26:                                               ; preds = %21
  %27 = load ptr, ptr %10, align 8, !tbaa !80
  %28 = load i32, ptr %12, align 4, !tbaa !10
  %29 = call ptr @Vec_PtrEntry(ptr noundef %27, i32 noundef %28)
  store ptr %29, ptr %11, align 8, !tbaa !76
  br label %30

30:                                               ; preds = %26, %21
  %31 = phi i1 [ false, %21 ], [ true, %26 ]
  br i1 %31, label %32, label %91

32:                                               ; preds = %30
  %33 = load i32, ptr %12, align 4, !tbaa !10
  %34 = icmp eq i32 %33, 0
  br i1 %34, label %35, label %47

35:                                               ; preds = %32
  %36 = load ptr, ptr %11, align 8, !tbaa !76
  %37 = load i32, ptr %7, align 4, !tbaa !10
  %38 = sext i32 %37 to i64
  %39 = mul i64 8, %38
  call void @llvm.memset.p0.i64(ptr align 8 %36, i8 0, i64 %39, i1 false)
  %40 = load ptr, ptr %11, align 8, !tbaa !76
  %41 = load i32, ptr %7, align 4, !tbaa !10
  %42 = sext i32 %41 to i64
  %43 = getelementptr inbounds i64, ptr %40, i64 %42
  %44 = load i32, ptr %7, align 4, !tbaa !10
  %45 = sext i32 %44 to i64
  %46 = mul i64 8, %45
  call void @llvm.memset.p0.i64(ptr align 8 %43, i8 -1, i64 %46, i1 false)
  br label %87

47:                                               ; preds = %32
  %48 = load i32, ptr %12, align 4, !tbaa !10
  %49 = icmp eq i32 %48, 1
  br i1 %49, label %50, label %62

50:                                               ; preds = %47
  %51 = load ptr, ptr %11, align 8, !tbaa !76
  %52 = load i32, ptr %7, align 4, !tbaa !10
  %53 = sext i32 %52 to i64
  %54 = mul i64 8, %53
  call void @llvm.memset.p0.i64(ptr align 8 %51, i8 -1, i64 %54, i1 false)
  %55 = load ptr, ptr %11, align 8, !tbaa !76
  %56 = load i32, ptr %7, align 4, !tbaa !10
  %57 = sext i32 %56 to i64
  %58 = getelementptr inbounds i64, ptr %55, i64 %57
  %59 = load i32, ptr %7, align 4, !tbaa !10
  %60 = sext i32 %59 to i64
  %61 = mul i64 8, %60
  call void @llvm.memset.p0.i64(ptr align 8 %58, i8 0, i64 %61, i1 false)
  br label %86

62:                                               ; preds = %47
  %63 = load ptr, ptr %11, align 8, !tbaa !76
  %64 = load ptr, ptr %5, align 8, !tbaa !85
  %65 = load i32, ptr %12, align 4, !tbaa !10
  %66 = sub nsw i32 %65, 2
  %67 = load i32, ptr %7, align 4, !tbaa !10
  %68 = mul nsw i32 %66, %67
  %69 = call ptr @Vec_WrdEntryP(ptr noundef %64, i32 noundef %68)
  %70 = load i32, ptr %7, align 4, !tbaa !10
  %71 = sext i32 %70 to i64
  %72 = mul i64 8, %71
  call void @llvm.memmove.p0.p0.i64(ptr align 8 %63, ptr align 8 %69, i64 %72, i1 false)
  %73 = load ptr, ptr %11, align 8, !tbaa !76
  %74 = load i32, ptr %7, align 4, !tbaa !10
  %75 = sext i32 %74 to i64
  %76 = getelementptr inbounds i64, ptr %73, i64 %75
  %77 = load ptr, ptr %6, align 8, !tbaa !85
  %78 = load i32, ptr %12, align 4, !tbaa !10
  %79 = sub nsw i32 %78, 2
  %80 = load i32, ptr %7, align 4, !tbaa !10
  %81 = mul nsw i32 %79, %80
  %82 = call ptr @Vec_WrdEntryP(ptr noundef %77, i32 noundef %81)
  %83 = load i32, ptr %7, align 4, !tbaa !10
  %84 = sext i32 %83 to i64
  %85 = mul i64 8, %84
  call void @llvm.memmove.p0.p0.i64(ptr align 8 %76, ptr align 8 %82, i64 %85, i1 false)
  br label %86

86:                                               ; preds = %62, %50
  br label %87

87:                                               ; preds = %86, %35
  br label %88

88:                                               ; preds = %87
  %89 = load i32, ptr %12, align 4, !tbaa !10
  %90 = add nsw i32 %89, 1
  store i32 %90, ptr %12, align 4, !tbaa !10
  br label %21, !llvm.loop !219

91:                                               ; preds = %30
  %92 = load ptr, ptr %9, align 8, !tbaa !67
  %93 = load ptr, ptr %10, align 8, !tbaa !80
  %94 = load i32, ptr %7, align 4, !tbaa !10
  %95 = mul nsw i32 %94, 2
  call void @Gia_ManResubPerform(ptr noundef %92, ptr noundef %93, i32 noundef %95, i32 noundef 100, i32 noundef 0, i32 noundef 50, i32 noundef 1, i32 noundef 1, i32 noundef 0, i32 noundef 0)
  %96 = load ptr, ptr %9, align 8, !tbaa !67
  %97 = getelementptr inbounds nuw %struct.Gia_ResbMan_t_, ptr %96, i32 0, i32 9
  %98 = load ptr, ptr %97, align 8, !tbaa !74
  %99 = load ptr, ptr %10, align 8, !tbaa !80
  %100 = call i32 @Vec_PtrSize(ptr noundef %99)
  %101 = call i32 @Gia_ManResubPrint(ptr noundef %98, i32 noundef %100)
  %102 = call i32 (ptr, ...) @printf(ptr noundef @.str.4)
  %103 = load ptr, ptr %9, align 8, !tbaa !67
  call void @Gia_ResbFree(ptr noundef %103)
  call void @llvm.lifetime.end.p0(i64 4, ptr %12) #14
  call void @llvm.lifetime.end.p0(i64 8, ptr %11) #14
  call void @llvm.lifetime.end.p0(i64 8, ptr %10) #14
  call void @llvm.lifetime.end.p0(i64 8, ptr %9) #14
  ret void
}