; Function Attrs: nounwind uwtable
define void @Gia_ManResubPair(ptr noundef readonly captures(none) %0, ptr noundef readonly captures(none) %1, i32 noundef %2, i32 noundef %3) local_unnamed_addr #0 {
  %5 = shl nsw i32 %2, 1
  %6 = tail call ptr @Gia_ResbAlloc(i32 noundef %5)
  %7 = add nsw i32 %3, 2
  %8 = sext i32 %5 to i64
  %9 = shl nsw i64 %8, 2
  %10 = add nsw i64 %9, 8
  %11 = sext i32 %7 to i64
  %12 = mul i64 %10, %11
  %13 = tail call noalias ptr @malloc(i64 noundef %12) #31
  %14 = getelementptr inbounds ptr, ptr %13, i64 %11
  %15 = icmp sgt i32 %3, -2
  br i1 %15, label %.lr.ph.preheader.i, label %Vec_PtrAllocSimInfo.exit

.lr.ph.preheader.i:                               ; preds = %4
  %wide.trip.count.i = zext nneg i32 %7 to i64
  br label %.lr.ph.i

.lr.ph.i:                                         ; preds = %.lr.ph.i, %.lr.ph.preheader.i
  %indvars.iv.i = phi i64 [ 0, %.lr.ph.preheader.i ], [ %indvars.iv.next.i, %.lr.ph.i ]
  %16 = mul nsw i64 %indvars.iv.i, %8
  %17 = getelementptr inbounds i32, ptr %14, i64 %16
  %18 = getelementptr inbounds nuw ptr, ptr %13, i64 %indvars.iv.i
  store ptr %17, ptr %18, align 8, !tbaa !93
  %indvars.iv.next.i = add nuw nsw i64 %indvars.iv.i, 1
  %exitcond.not.i = icmp eq i64 %indvars.iv.next.i, %wide.trip.count.i
  br i1 %exitcond.not.i, label %Vec_PtrAllocSimInfo.exit, label %.lr.ph.i, !llvm.loop !195

Vec_PtrAllocSimInfo.exit:                         ; preds = %.lr.ph.i, %4
  %19 = tail call noalias dereferenceable_or_null(16) ptr @malloc(i64 noundef 16) #31
  %20 = getelementptr inbounds nuw i8, ptr %19, i64 4
  store i32 %7, ptr %20, align 4, !tbaa !73
  store i32 %7, ptr %19, align 8, !tbaa !75
  %21 = getelementptr inbounds nuw i8, ptr %19, i64 8
  store ptr %13, ptr %21, align 8, !tbaa !76
  br i1 %15, label %.lr.ph, label %.critedge

.lr.ph:                                           ; preds = %Vec_PtrAllocSimInfo.exit
  %22 = sext i32 %2 to i64
  %23 = shl nsw i64 %22, 3
  %24 = getelementptr i8, ptr %0, i64 8
  %25 = getelementptr i8, ptr %1, i64 8
  %wide.trip.count = zext i32 %7 to i64
  br label %26

26:                                               ; preds = %.lr.ph, %40
  %indvars.iv = phi i64 [ 0, %.lr.ph ], [ %indvars.iv.next, %40 ]
  %27 = getelementptr inbounds nuw ptr, ptr %13, i64 %indvars.iv
  %28 = load ptr, ptr %27, align 8, !tbaa !93
  %29 = trunc nuw nsw i64 %indvars.iv to i32
  switch i32 %29, label %34 [
    i32 0, label %30
    i32 1, label %32
  ]

30:                                               ; preds = %26
  tail call void @llvm.memset.p0.i64(ptr align 8 %28, i8 0, i64 %23, i1 false)
  %31 = getelementptr inbounds i64, ptr %28, i64 %22
  tail call void @llvm.memset.p0.i64(ptr align 8 %31, i8 -1, i64 %23, i1 false)
  br label %40

32:                                               ; preds = %26
  tail call void @llvm.memset.p0.i64(ptr align 8 %28, i8 -1, i64 %23, i1 false)
  %33 = getelementptr inbounds i64, ptr %28, i64 %22
  tail call void @llvm.memset.p0.i64(ptr align 8 %33, i8 0, i64 %23, i1 false)
  br label %40

34:                                               ; preds = %26
  %35 = add nsw i64 %indvars.iv, -2
  %36 = mul nsw i64 %35, %22
  %.val39 = load ptr, ptr %24, align 8, !tbaa !84
  %37 = getelementptr inbounds i64, ptr %.val39, i64 %36
  tail call void @llvm.memmove.p0.p0.i64(ptr align 8 %28, ptr align 8 %37, i64 %23, i1 false)
  %38 = getelementptr inbounds i64, ptr %28, i64 %22
  %.val38 = load ptr, ptr %25, align 8, !tbaa !84
  %39 = getelementptr inbounds i64, ptr %.val38, i64 %36
  tail call void @llvm.memmove.p0.p0.i64(ptr align 8 %38, ptr align 8 %39, i64 %23, i1 false)
  br label %40

40:                                               ; preds = %30, %34, %32
  %indvars.iv.next = add nuw nsw i64 %indvars.iv, 1
  %exitcond.not = icmp eq i64 %indvars.iv.next, %wide.trip.count
  br i1 %exitcond.not, label %.critedge, label %26, !llvm.loop !196

.critedge:                                        ; preds = %40, %Vec_PtrAllocSimInfo.exit
  tail call void @Gia_ManResubPerform(ptr noundef %6, ptr noundef nonnull %19, i32 noundef %5, i32 noundef 100, i32 noundef 0, i32 noundef 50, i32 noundef 1, i32 noundef 1, i32 noundef 0, i32 noundef 0)
  %41 = getelementptr inbounds nuw i8, ptr %6, i64 40
  %42 = load ptr, ptr %41, align 8, !tbaa !72
  %43 = tail call i32 @Gia_ManResubPrint(ptr noundef %42, i32 noundef %7)
  %putchar = tail call i32 @putchar(i32 10)
  tail call void @Gia_ResbFree(ptr noundef %6)
  ret void
}